; Function Attrs: mustprogress nounwind uwtable
define dso_local void @_ZN4llvm7VPValueC2EhPNS_5ValueEPNS_5VPDefE(ptr noundef nonnull align 8 dereferenceable(56) %0, i8 noundef zeroext %1, ptr noundef %2, ptr noundef %3) unnamed_addr #0 align 2 {
  store ptr getelementptr inbounds inrange(-16, 16) (i8, ptr @_ZTVN4llvm7VPValueE, i64 16), ptr %0, align 8
  %5 = getelementptr inbounds nuw i8, ptr %0, i64 8
  store i8 %1, ptr %5, align 8
  %6 = getelementptr inbounds nuw i8, ptr %0, i64 16
  %7 = getelementptr inbounds i8, ptr %0, i64 32
  tail call void @_ZN4llvm15SmallVectorBaseIjEC2EPvm(ptr noundef nonnull align 8 dereferenceable(16) %6, ptr noundef nonnull %7, i64 noundef 1) #21
  %8 = getelementptr inbounds nuw i8, ptr %0, i64 40
  store ptr %2, ptr %8, align 8
  %9 = getelementptr inbounds nuw i8, ptr %0, i64 48
  store ptr %3, ptr %9, align 8
  %.not = icmp eq ptr %3, null
  br i1 %.not, label %12, label %10

10:                                               ; preds = %4
  %11 = getelementptr inbounds nuw i8, ptr %3, i64 16
  tail call void @_ZN4llvm13TinyPtrVectorIPNS_7VPValueEE9push_backES2_(ptr noundef nonnull align 8 dereferenceable(8) %11, ptr noundef nonnull %0)
  br label %12

12:                                               ; preds = %10, %4
  ret void
}